; Function Attrs: mustprogress uwtable
define hidden void @_ZNK4cvc58internal6String8toNumberEv(ptr noalias sret(%"class.cvc5::internal::Rational") align 8 %agg.result, ptr nocapture noundef nonnull readonly align 8 dereferenceable(24) %this) local_unnamed_addr #3 align 2 personality ptr @__gxx_personality_v0 {
entry:
  %ref.tmp = alloca %"class.std::__cxx11::basic_string.4", align 8
  call void @_ZNK4cvc58internal6String8toStringB5cxx11Eb(ptr nonnull sret(%"class.std::__cxx11::basic_string.4") align 8 %ref.tmp, ptr noundef nonnull align 8 dereferenceable(24) %this, i1 noundef zeroext false)
  invoke void @_ZN10__gmp_exprIA1_12__mpq_structS1_EC2ERKNSt7__cxx1112basic_stringIcSt11char_traitsIcESaIcEEEi(ptr noundef nonnull align 8 dereferenceable(32) %agg.result, ptr noundef nonnull align 8 dereferenceable(32) %ref.tmp, i32 noundef 10)
          to label %.noexc unwind label %lpad

.noexc:                                           ; preds = %entry
  invoke void @__gmpq_canonicalize(ptr noundef nonnull %agg.result)
          to label %invoke.cont unwind label %lpad.i

lpad.i:                                           ; preds = %.noexc
  %0 = landingpad { ptr, i32 }
          cleanup
  invoke void @__gmpq_clear(ptr noundef nonnull %agg.result)
          to label %lpad.body unwind label %terminate.lpad.i.i

terminate.lpad.i.i:                               ; preds = %lpad.i
  %1 = landingpad { ptr, i32 }
          catch ptr null
  %2 = extractvalue { ptr, i32 } %1, 0
  call void @__clang_call_terminate(ptr %2) #22
  unreachable

invoke.cont:                                      ; preds = %.noexc
  call void @_ZNSt7__cxx1112basic_stringIcSt11char_traitsIcESaIcEED1Ev(ptr noundef nonnull align 8 dereferenceable(32) %ref.tmp) #18
  ret void

lpad:                                             ; preds = %entry
  %3 = landingpad { ptr, i32 }
          cleanup
  br label %lpad.body

lpad.body:                                        ; preds = %lpad.i, %lpad
  %eh.lpad-body = phi { ptr, i32 } [ %3, %lpad ], [ %0, %lpad.i ]
  call void @_ZNSt7__cxx1112basic_stringIcSt11char_traitsIcESaIcEED1Ev(ptr noundef nonnull align 8 dereferenceable(32) %ref.tmp) #18
  resume { ptr, i32 } %eh.lpad-body
}